#include <math.h>
#include <stdio.h>
#include <stdlib.h>
#include <string.h>

void main()
{
	char s[200];
	int i,n,j;
	gets(s);
	n=strlen(s);
	char *p=s;
        for(i=n-1;i>=0;i--)
			*(p+i+1)=*(p+i);
		*(p+0)=*(p+n+1)=' ';/*why????*/
		for(i=n;i>=0;i--)
		{
			if(*(p+i)==' ')
			{
				for(j=i+1;*(p+j)!=' ';j++)
					printf("%c",*(p+j));
			    if(i!=0) printf(" ");
			}
		}
}
				

	
